target datalayout = "e-m:e-p270:32:32-p271:32:32-p272:64:64-i64:64-i128:128-f80:128-n8:16:32:64-S128"
target triple = "x86_64-pc-linux-gnu"

%struct.CTState = type { ptr, i32, i32, ptr, ptr, ptr, %struct.CCallback, [128 x i16] }
%struct.CCallback = type { [8 x %union.FPRCBArg], [8 x i64], ptr, ptr, ptr, i32, i32, i32 }
%union.FPRCBArg = type { double }
%struct.CType = type { i32, i32, i16, i16, %struct.GCRef }
%struct.GCRef = type { i64 }

; Function Attrs: alwaysinline nounwind uwtable
define internal i32 @ctype_check(ptr noundef %0, i32 noundef %1) #5 {
  %3 = alloca ptr, align 8
  %4 = alloca i32, align 4
  store ptr %0, ptr %3, align 8, !tbaa !4
  store i32 %1, ptr %4, align 4, !tbaa !21
  %5 = load i32, ptr %4, align 4, !tbaa !21
  ret i32 %5
}

; Function Attrs: alwaysinline nounwind uwtable
define internal ptr @ctype_child(ptr noundef %0, ptr noundef %1) #5 {
  %3 = alloca ptr, align 8
  %4 = alloca ptr, align 8
  store ptr %0, ptr %3, align 8, !tbaa !4
  store ptr %1, ptr %4, align 8, !tbaa !25
  %5 = load ptr, ptr %3, align 8, !tbaa !4
  %6 = load ptr, ptr %4, align 8, !tbaa !25
  %7 = getelementptr inbounds nuw %struct.CType, ptr %6, i32 0, i32 0
  %8 = load i32, ptr %7, align 8, !tbaa !26
  %9 = and i32 %8, 65535
  %10 = call ptr @ctype_get(ptr noundef %5, i32 noundef %9)
  ret ptr %10
}

; Function Attrs: alwaysinline nounwind uwtable
define internal ptr @ctype_get(ptr noundef %0, i32 noundef %1) #5 {
  %3 = alloca ptr, align 8
  %4 = alloca i32, align 4
  store ptr %0, ptr %3, align 8, !tbaa !4
  store i32 %1, ptr %4, align 4, !tbaa !21
  %5 = load ptr, ptr %3, align 8, !tbaa !4
  %6 = getelementptr inbounds nuw %struct.CTState, ptr %5, i32 0, i32 0
  %7 = load ptr, ptr %6, align 8, !tbaa !24
  %8 = load ptr, ptr %3, align 8, !tbaa !4
  %9 = load i32, ptr %4, align 4, !tbaa !21
  %10 = call i32 @ctype_check(ptr noundef %8, i32 noundef %9)
  %11 = zext i32 %10 to i64
  %12 = getelementptr inbounds nuw %struct.CType, ptr %7, i64 %11
  ret ptr %12
}

; Function Attrs: nounwind uwtable
define hidden ptr @lj_ctype_getfieldq(ptr noundef %0, ptr noundef %1, ptr noundef %2, ptr noundef %3, ptr noundef %4) #0 {
  %6 = alloca ptr, align 8
  %7 = alloca ptr, align 8
  %8 = alloca ptr, align 8
  %9 = alloca ptr, align 8
  %10 = alloca ptr, align 8
  %11 = alloca ptr, align 8
  %12 = alloca ptr, align 8
  %13 = alloca ptr, align 8
  %14 = alloca i32, align 4
  %15 = alloca i32, align 4
  store ptr %0, ptr %7, align 8, !tbaa !4
  store ptr %1, ptr %8, align 8, !tbaa !25
  store ptr %2, ptr %9, align 8, !tbaa !38
  store ptr %3, ptr %10, align 8, !tbaa !41
  store ptr %4, ptr %11, align 8, !tbaa !41
  br label %16

16:                                               ; preds = %103, %5
  %17 = load ptr, ptr %8, align 8, !tbaa !25
  %18 = getelementptr inbounds nuw %struct.CType, ptr %17, i32 0, i32 2
  %19 = load i16, ptr %18, align 8, !tbaa !32
  %20 = icmp ne i16 %19, 0
  br i1 %20, label %21, label %104

21:                                               ; preds = %16
  %22 = load ptr, ptr %7, align 8, !tbaa !4
  %23 = load ptr, ptr %8, align 8, !tbaa !25
  %24 = getelementptr inbounds nuw %struct.CType, ptr %23, i32 0, i32 2
  %25 = load i16, ptr %24, align 8, !tbaa !32
  %26 = zext i16 %25 to i32
  %27 = call ptr @ctype_get(ptr noundef %22, i32 noundef %26)
  store ptr %27, ptr %8, align 8, !tbaa !25
  %28 = load ptr, ptr %8, align 8, !tbaa !25
  %29 = getelementptr inbounds nuw %struct.CType, ptr %28, i32 0, i32 4
  %30 = getelementptr inbounds nuw %struct.GCRef, ptr %29, i32 0, i32 0
  %31 = load i64, ptr %30, align 8, !tbaa !34
  %32 = inttoptr i64 %31 to ptr
  %33 = load ptr, ptr %9, align 8, !tbaa !38
  %34 = icmp eq ptr %32, %33
  br i1 %34, label %35, label %41

35:                                               ; preds = %21
  %36 = load ptr, ptr %8, align 8, !tbaa !25
  %37 = getelementptr inbounds nuw %struct.CType, ptr %36, i32 0, i32 1
  %38 = load i32, ptr %37, align 4, !tbaa !31
  %39 = load ptr, ptr %10, align 8, !tbaa !41
  store i32 %38, ptr %39, align 4, !tbaa !21
  %40 = load ptr, ptr %8, align 8, !tbaa !25
  store ptr %40, ptr %6, align 8
  br label %105

41:                                               ; preds = %21
  %42 = load ptr, ptr %8, align 8, !tbaa !25
  %43 = getelementptr inbounds nuw %struct.CType, ptr %42, i32 0, i32 0
  %44 = load i32, ptr %43, align 8, !tbaa !26
  %45 = and i32 %44, -251723776
  %46 = icmp eq i32 %45, -2147287040
  br i1 %46, label %47, label %103

47:                                               ; preds = %41
  call void @llvm.lifetime.start.p0(i64 8, ptr %12) #8
  call void @llvm.lifetime.start.p0(i64 8, ptr %13) #8
  %48 = load ptr, ptr %7, align 8, !tbaa !4
  %49 = load ptr, ptr %8, align 8, !tbaa !25
  %50 = call ptr @ctype_child(ptr noundef %48, ptr noundef %49)
  store ptr %50, ptr %13, align 8, !tbaa !25
  call void @llvm.lifetime.start.p0(i64 4, ptr %14) #8
  store i32 0, ptr %14, align 4, !tbaa !21
  br label %51

51:                                               ; preds = %70, %47
  %52 = load ptr, ptr %13, align 8, !tbaa !25
  %53 = getelementptr inbounds nuw %struct.CType, ptr %52, i32 0, i32 0
  %54 = load i32, ptr %53, align 8, !tbaa !26
  %55 = lshr i32 %54, 28
  %56 = icmp eq i32 %55, 8
  br i1 %56, label %57, label %74

57:                                               ; preds = %51
  %58 = load ptr, ptr %13, align 8, !tbaa !25
  %59 = getelementptr inbounds nuw %struct.CType, ptr %58, i32 0, i32 0
  %60 = load i32, ptr %59, align 8, !tbaa !26
  %61 = lshr i32 %60, 16
  %62 = and i32 %61, 255
  %63 = icmp eq i32 %62, 1
  br i1 %63, label %64, label %70

64:                                               ; preds = %57
  %65 = load ptr, ptr %13, align 8, !tbaa !25
  %66 = getelementptr inbounds nuw %struct.CType, ptr %65, i32 0, i32 1
  %67 = load i32, ptr %66, align 4, !tbaa !31
  %68 = load i32, ptr %14, align 4, !tbaa !21
  %69 = or i32 %68, %67
  store i32 %69, ptr %14, align 4, !tbaa !21
  br label %70

70:                                               ; preds = %64, %57
  %71 = load ptr, ptr %7, align 8, !tbaa !4
  %72 = load ptr, ptr %13, align 8, !tbaa !25
  %73 = call ptr @ctype_child(ptr noundef %71, ptr noundef %72)
  store ptr %73, ptr %13, align 8, !tbaa !25
  br label %51, !llvm.loop !43

74:                                               ; preds = %51
  %75 = load ptr, ptr %7, align 8, !tbaa !4
  %76 = load ptr, ptr %13, align 8, !tbaa !25
  %77 = load ptr, ptr %9, align 8, !tbaa !38
  %78 = load ptr, ptr %10, align 8, !tbaa !41
  %79 = load ptr, ptr %11, align 8, !tbaa !41
  %80 = call ptr @lj_ctype_getfieldq(ptr noundef %75, ptr noundef %76, ptr noundef %77, ptr noundef %78, ptr noundef %79)
  store ptr %80, ptr %12, align 8, !tbaa !25
  %81 = load ptr, ptr %12, align 8, !tbaa !25
  %82 = icmp ne ptr %81, null
  br i1 %82, label %83, label %99

83:                                               ; preds = %74
  %84 = load ptr, ptr %11, align 8, !tbaa !41
  %85 = icmp ne ptr %84, null
  br i1 %85, label %86, label %91

86:                                               ; preds = %83
  %87 = load i32, ptr %14, align 4, !tbaa !21
  %88 = load ptr, ptr %11, align 8, !tbaa !41
  %89 = load i32, ptr %88, align 4, !tbaa !21
  %90 = or i32 %89, %87
  store i32 %90, ptr %88, align 4, !tbaa !21
  br label %91

91:                                               ; preds = %86, %83
  %92 = load ptr, ptr %8, align 8, !tbaa !25
  %93 = getelementptr inbounds nuw %struct.CType, ptr %92, i32 0, i32 1
  %94 = load i32, ptr %93, align 4, !tbaa !31
  %95 = load ptr, ptr %10, align 8, !tbaa !41
  %96 = load i32, ptr %95, align 4, !tbaa !21
  %97 = add i32 %96, %94
  store i32 %97, ptr %95, align 4, !tbaa !21
  %98 = load ptr, ptr %12, align 8, !tbaa !25
  store ptr %98, ptr %6, align 8
  store i32 1, ptr %15, align 4
  br label %100

99:                                               ; preds = %74
  store i32 0, ptr %15, align 4
  br label %100

100:                                              ; preds = %99, %91
  call void @llvm.lifetime.end.p0(i64 4, ptr %14) #8
  call void @llvm.lifetime.end.p0(i64 8, ptr %13) #8
  call void @llvm.lifetime.end.p0(i64 8, ptr %12) #8
  %101 = load i32, ptr %15, align 4
  switch i32 %101, label %107 [
    i32 0, label %102
    i32 1, label %105
  ]

102:                                              ; preds = %100
  br label %103

103:                                              ; preds = %102, %41
  br label %16, !llvm.loop !44

104:                                              ; preds = %16
  store ptr null, ptr %6, align 8
  br label %105

105:                                              ; preds = %104, %100, %35
  %106 = load ptr, ptr %6, align 8
  ret ptr %106

107:                                              ; preds = %100
  unreachable
}