; Function Attrs: nofree nosync nounwind memory(readwrite, inaccessiblemem: none) uwtable
define hidden ptr @lj_ctype_getfieldq(ptr noundef readonly captures(none) %0, ptr noundef readonly captures(none) %1, ptr noundef captures(address) %2, ptr noundef captures(none) %3, ptr noundef captures(address_is_null) %4) local_unnamed_addr #6 {
  %6 = getelementptr inbounds nuw i8, ptr %1, i64 8
  %7 = load i16, ptr %6, align 8, !tbaa !32
  %.not51 = icmp eq i16 %7, 0
  br i1 %.not51, label %.loopexit, label %.lr.ph53.preheader

.lr.ph53.preheader:                               ; preds = %5
  %.pre58 = load ptr, ptr %0, align 8, !tbaa !19
  br label %.lr.ph53

.lr.ph53:                                         ; preds = %.lr.ph53.preheader, %.thread
  %8 = phi ptr [ %46, %.thread ], [ %.pre58, %.lr.ph53.preheader ]
  %9 = phi i16 [ %48, %.thread ], [ %7, %.lr.ph53.preheader ]
  %10 = zext i16 %9 to i64
  %11 = getelementptr inbounds nuw %struct.CType, ptr %8, i64 %10
  %12 = getelementptr inbounds nuw i8, ptr %11, i64 16
  %13 = load i64, ptr %12, align 8, !tbaa !22
  %14 = inttoptr i64 %13 to ptr
  %15 = icmp eq ptr %2, %14
  br i1 %15, label %16, label %19

16:                                               ; preds = %.lr.ph53
  %17 = getelementptr inbounds nuw i8, ptr %11, i64 4
  %18 = load i32, ptr %17, align 4, !tbaa !29
  br label %.loopexit.sink.split

19:                                               ; preds = %.lr.ph53
  %20 = load i32, ptr %11, align 8, !tbaa !28
  %21 = and i32 %20, -251723776
  %22 = icmp eq i32 %21, -2147287040
  br i1 %22, label %.preheader, label %.thread

.preheader:                                       ; preds = %19
  %.pn.in45 = and i32 %20, 65535
  %.pn46 = zext nneg i32 %.pn.in45 to i64
  %.03147 = getelementptr inbounds nuw %struct.CType, ptr %8, i64 %.pn46
  %23 = load i32, ptr %.03147, align 8, !tbaa !28
  %24 = icmp slt i32 %23, -1879048192
  br i1 %24, label %.lr.ph, label %._crit_edge

.lr.ph:                                           ; preds = %.preheader, %33
  %25 = phi i32 [ %34, %33 ], [ %23, %.preheader ]
  %26 = phi i64 [ %.pn, %33 ], [ %.pn46, %.preheader ]
  %.03048 = phi i32 [ %.1, %33 ], [ 0, %.preheader ]
  %27 = and i32 %25, 16711680
  %28 = icmp eq i32 %27, 65536
  br i1 %28, label %29, label %33

29:                                               ; preds = %.lr.ph
  %30 = getelementptr inbounds nuw %struct.CType, ptr %8, i64 %26, i32 1
  %31 = load i32, ptr %30, align 4, !tbaa !29
  %32 = or i32 %31, %.03048
  br label %33

33:                                               ; preds = %29, %.lr.ph
  %.1 = phi i32 [ %32, %29 ], [ %.03048, %.lr.ph ]
  %.pn.in = and i32 %25, 65535
  %.pn = zext nneg i32 %.pn.in to i64
  %.031 = getelementptr inbounds nuw %struct.CType, ptr %8, i64 %.pn
  %34 = load i32, ptr %.031, align 8, !tbaa !28
  %35 = icmp slt i32 %34, -1879048192
  br i1 %35, label %.lr.ph, label %._crit_edge, !llvm.loop !35

._crit_edge:                                      ; preds = %33, %.preheader
  %.030.lcssa = phi i32 [ 0, %.preheader ], [ %.1, %33 ]
  %.031.lcssa = phi ptr [ %.03147, %.preheader ], [ %.031, %33 ]
  %36 = tail call ptr @lj_ctype_getfieldq(ptr noundef nonnull %0, ptr noundef nonnull %.031.lcssa, ptr noundef %2, ptr noundef %3, ptr noundef %4)
  %.not39.not = icmp eq ptr %36, null
  %.pre = load ptr, ptr %0, align 8, !tbaa !19
  br i1 %.not39.not, label %.thread, label %37

37:                                               ; preds = %._crit_edge
  %.not40 = icmp eq ptr %4, null
  br i1 %.not40, label %41, label %38

38:                                               ; preds = %37
  %39 = load i32, ptr %4, align 4, !tbaa !36
  %40 = or i32 %39, %.030.lcssa
  store i32 %40, ptr %4, align 4, !tbaa !36
  br label %41

41:                                               ; preds = %37, %38
  %42 = getelementptr inbounds nuw i8, ptr %11, i64 4
  %43 = load i32, ptr %42, align 4, !tbaa !29
  %44 = load i32, ptr %3, align 4, !tbaa !36
  %45 = add i32 %44, %43
  br label %.loopexit.sink.split

.thread:                                          ; preds = %._crit_edge, %19
  %46 = phi ptr [ %.pre, %._crit_edge ], [ %8, %19 ]
  %47 = getelementptr inbounds nuw i8, ptr %11, i64 8
  %48 = load i16, ptr %47, align 8, !tbaa !32
  %.not = icmp eq i16 %48, 0
  br i1 %.not, label %.loopexit, label %.lr.ph53, !llvm.loop !37

.loopexit.sink.split:                             ; preds = %16, %41
  %.sink = phi i32 [ %45, %41 ], [ %18, %16 ]
  %.133.ph = phi ptr [ %36, %41 ], [ %11, %16 ]
  store i32 %.sink, ptr %3, align 4, !tbaa !36
  br label %.loopexit

.loopexit:                                        ; preds = %.thread, %.loopexit.sink.split, %5
  %.133 = phi ptr [ null, %5 ], [ %.133.ph, %.loopexit.sink.split ], [ null, %.thread ]
  ret ptr %.133
}